target datalayout = "e-m:e-p270:32:32-p271:32:32-p272:64:64-i64:64-i128:128-f80:128-n8:16:32:64-S128"
target triple = "x86_64-pc-linux-gnu"

%struct.ImageRect = type { i32, i32, i32, i32, ptr, ptr, i32, i32, i32 }
%struct.Splash = type { %struct.ImageFormat, [3 x %struct.DitherSettings], %struct.ImageFormat, [256 x i32], i32, i32, i32, i32, i32, ptr, i32, ptr, %struct.ImageRect, %struct.ImageFormat, ptr, i32, i32, i32, i32, i32, [256 x i32], i32, ptr, i32, ptr, i32, float, [2 x i32], ptr, i64, ptr, ptr, i64, %union.pthread_mutex_t, i64, ptr }
%struct.DitherSettings = type { i32, [512 x i32], [16 x [16 x i32]] }
%struct.ImageFormat = type { [4 x i32], [4 x i32], i32, i32, i32, ptr, i32, i32, ptr, i32, ptr }
%union.pthread_mutex_t = type { %struct.__pthread_mutex_s }
%struct.__pthread_mutex_s = type { i32, i32, i32, i32, i32, i16, i16, %struct.__pthread_internal_list }
%struct.__pthread_internal_list = type { ptr, ptr }

@shapeSupported = internal global i32 0, align 4

; Function Attrs: nounwind uwtable
define hidden void @SplashRevertShape(ptr noundef %0) #0 {
  %2 = alloca ptr, align 8
  store ptr %0, ptr %2, align 8
  %3 = load i32, ptr @shapeSupported, align 4
  %4 = icmp ne i32 %3, 0
  br i1 %4, label %6, label %5

5:                                                ; preds = %1
  br label %25

6:                                                ; preds = %1
  %7 = load ptr, ptr %2, align 8
  %8 = getelementptr inbounds %struct.Splash, ptr %7, i32 0, i32 5
  %9 = load i32, ptr %8, align 4
  %10 = icmp ne i32 %9, 0
  br i1 %10, label %11, label %12

11:                                               ; preds = %6
  br label %25

12:                                               ; preds = %6
  %13 = load ptr, ptr %2, align 8
  %14 = getelementptr inbounds %struct.Splash, ptr %13, i32 0, i32 28
  %15 = load ptr, ptr %14, align 8
  %16 = load ptr, ptr %2, align 8
  %17 = getelementptr inbounds %struct.Splash, ptr %16, i32 0, i32 29
  %18 = load i64, ptr %17, align 8
  call void @XShapeCombineMask(ptr noundef %15, i64 noundef %18, i32 noundef 1, i32 noundef 0, i32 noundef 0, i64 noundef 0, i32 noundef 0)
  %19 = load ptr, ptr %2, align 8
  %20 = getelementptr inbounds %struct.Splash, ptr %19, i32 0, i32 28
  %21 = load ptr, ptr %20, align 8
  %22 = load ptr, ptr %2, align 8
  %23 = getelementptr inbounds %struct.Splash, ptr %22, i32 0, i32 29
  %24 = load i64, ptr %23, align 8
  call void @XShapeCombineMask(ptr noundef %21, i64 noundef %24, i32 noundef 0, i32 noundef 0, i32 noundef 0, i64 noundef 0, i32 noundef 0)
  br label %25

25:                                               ; preds = %12, %11, %5
  ret void
}