; Function Attrs: nounwind uwtable
define hidden void @SplashRevertShape(ptr nocapture noundef readonly %0) local_unnamed_addr #0 {
  %2 = load i32, ptr @shapeSupported, align 4
  %.not = icmp eq i32 %2, 0
  br i1 %.not, label %13, label %3

3:                                                ; preds = %1
  %4 = getelementptr inbounds i8, ptr %0, i64 10436
  %5 = load i32, ptr %4, align 4
  %.not5 = icmp eq i32 %5, 0
  br i1 %.not5, label %6, label %13

6:                                                ; preds = %3
  %7 = getelementptr inbounds i8, ptr %0, i64 11712
  %8 = load ptr, ptr %7, align 8
  %9 = getelementptr inbounds i8, ptr %0, i64 11720
  %10 = load i64, ptr %9, align 8
  tail call void @XShapeCombineMask(ptr noundef %8, i64 noundef %10, i32 noundef 1, i32 noundef 0, i32 noundef 0, i64 noundef 0, i32 noundef 0) #16
  %11 = load ptr, ptr %7, align 8
  %12 = load i64, ptr %9, align 8
  tail call void @XShapeCombineMask(ptr noundef %11, i64 noundef %12, i32 noundef 0, i32 noundef 0, i32 noundef 0, i64 noundef 0, i32 noundef 0) #16
  br label %13

13:                                               ; preds = %3, %1, %6
  ret void
}